; ModuleID = '20/546.c'
source_filename = "20/546.c"
target datalayout = "e-m:e-p270:32:32-p271:32:32-p272:64:64-i64:64-f80:128-n8:16:32:64-S128"
target triple = "x86_64-pc-linux-gnu"

@.str = private unnamed_addr constant [5 x i8] c"%s%s\00", align 1
@.str.1 = private unnamed_addr constant [4 x i8] c"%s\0A\00", align 1

; Function Attrs: noinline nounwind uwtable
define dso_local void @main() #0 {
  %1 = alloca [11 x i8], align 1
  %2 = alloca [4 x i8], align 1
  %3 = alloca [16 x i8], align 16
  %4 = alloca i32, align 4
  %5 = alloca i32, align 4
  %6 = alloca i32, align 4
  %7 = alloca i32, align 4
  br label %8

8:                                                ; preds = %110, %0
  %9 = getelementptr inbounds [11 x i8], [11 x i8]* %1, i64 0, i64 0
  %10 = getelementptr inbounds [4 x i8], [4 x i8]* %2, i64 0, i64 0
  %11 = call i32 (i8*, ...) @__isoc99_scanf(i8* getelementptr inbounds ([5 x i8], [5 x i8]* @.str, i64 0, i64 0), i8* %9, i8* %10)
  %12 = icmp ne i32 %11, -1
  br i1 %12, label %13, label %117

13:                                               ; preds = %8
  store i32 0, i32* %5, align 4
  store i32 0, i32* %6, align 4
  store i32 0, i32* %4, align 4
  br label %14

14:                                               ; preds = %24, %13
  %15 = load i32, i32* %4, align 4
  %16 = sext i32 %15 to i64
  %17 = getelementptr inbounds [11 x i8], [11 x i8]* %1, i64 0, i64 %16
  %18 = load i8, i8* %17, align 1
  %19 = sext i8 %18 to i32
  %20 = icmp ne i32 %19, 0
  br i1 %20, label %21, label %27

21:                                               ; preds = %14
  %22 = load i32, i32* %5, align 4
  %23 = add nsw i32 %22, 1
  store i32 %23, i32* %5, align 4
  br label %24

24:                                               ; preds = %21
  %25 = load i32, i32* %4, align 4
  %26 = add nsw i32 %25, 1
  store i32 %26, i32* %4, align 4
  br label %14

27:                                               ; preds = %14
  store i32 0, i32* %4, align 4
  br label %28

28:                                               ; preds = %49, %27
  %29 = load i32, i32* %4, align 4
  %30 = load i32, i32* %5, align 4
  %31 = sub nsw i32 %30, 1
  %32 = icmp sle i32 %29, %31
  br i1 %32, label %33, label %52

33:                                               ; preds = %28
  %34 = load i32, i32* %4, align 4
  %35 = sext i32 %34 to i64
  %36 = getelementptr inbounds [11 x i8], [11 x i8]* %1, i64 0, i64 %35
  %37 = load i8, i8* %36, align 1
  %38 = sext i8 %37 to i32
  %39 = load i32, i32* %6, align 4
  %40 = icmp sgt i32 %38, %39
  br i1 %40, label %41, label %48

41:                                               ; preds = %33
  %42 = load i32, i32* %4, align 4
  %43 = sext i32 %42 to i64
  %44 = getelementptr inbounds [11 x i8], [11 x i8]* %1, i64 0, i64 %43
  %45 = load i8, i8* %44, align 1
  %46 = sext i8 %45 to i32
  store i32 %46, i32* %6, align 4
  %47 = load i32, i32* %4, align 4
  store i32 %47, i32* %7, align 4
  br label %48

48:                                               ; preds = %41, %33
  br label %49

49:                                               ; preds = %48
  %50 = load i32, i32* %4, align 4
  %51 = add nsw i32 %50, 1
  store i32 %51, i32* %4, align 4
  br label %28

52:                                               ; preds = %28
  store i32 0, i32* %4, align 4
  br label %53

53:                                               ; preds = %65, %52
  %54 = load i32, i32* %4, align 4
  %55 = load i32, i32* %7, align 4
  %56 = icmp sle i32 %54, %55
  br i1 %56, label %57, label %68

57:                                               ; preds = %53
  %58 = load i32, i32* %4, align 4
  %59 = sext i32 %58 to i64
  %60 = getelementptr inbounds [11 x i8], [11 x i8]* %1, i64 0, i64 %59
  %61 = load i8, i8* %60, align 1
  %62 = load i32, i32* %4, align 4
  %63 = sext i32 %62 to i64
  %64 = getelementptr inbounds [16 x i8], [16 x i8]* %3, i64 0, i64 %63
  store i8 %61, i8* %64, align 1
  br label %65

65:                                               ; preds = %57
  %66 = load i32, i32* %4, align 4
  %67 = add nsw i32 %66, 1
  store i32 %67, i32* %4, align 4
  br label %53

68:                                               ; preds = %53
  %69 = load i32, i32* %7, align 4
  %70 = add nsw i32 %69, 1
  store i32 %70, i32* %4, align 4
  br label %71

71:                                               ; preds = %87, %68
  %72 = load i32, i32* %4, align 4
  %73 = load i32, i32* %7, align 4
  %74 = add nsw i32 %73, 3
  %75 = icmp sle i32 %72, %74
  br i1 %75, label %76, label %90

76:                                               ; preds = %71
  %77 = load i32, i32* %4, align 4
  %78 = load i32, i32* %7, align 4
  %79 = sub nsw i32 %77, %78
  %80 = sub nsw i32 %79, 1
  %81 = sext i32 %80 to i64
  %82 = getelementptr inbounds [4 x i8], [4 x i8]* %2, i64 0, i64 %81
  %83 = load i8, i8* %82, align 1
  %84 = load i32, i32* %4, align 4
  %85 = sext i32 %84 to i64
  %86 = getelementptr inbounds [16 x i8], [16 x i8]* %3, i64 0, i64 %85
  store i8 %83, i8* %86, align 1
  br label %87

87:                                               ; preds = %76
  %88 = load i32, i32* %4, align 4
  %89 = add nsw i32 %88, 1
  store i32 %89, i32* %4, align 4
  br label %71

90:                                               ; preds = %71
  %91 = load i32, i32* %7, align 4
  %92 = add nsw i32 %91, 4
  store i32 %92, i32* %4, align 4
  br label %93

93:                                               ; preds = %107, %90
  %94 = load i32, i32* %4, align 4
  %95 = load i32, i32* %5, align 4
  %96 = add nsw i32 %95, 2
  %97 = icmp sle i32 %94, %96
  br i1 %97, label %98, label %110

98:                                               ; preds = %93
  %99 = load i32, i32* %4, align 4
  %100 = sub nsw i32 %99, 3
  %101 = sext i32 %100 to i64
  %102 = getelementptr inbounds [11 x i8], [11 x i8]* %1, i64 0, i64 %101
  %103 = load i8, i8* %102, align 1
  %104 = load i32, i32* %4, align 4
  %105 = sext i32 %104 to i64
  %106 = getelementptr inbounds [16 x i8], [16 x i8]* %3, i64 0, i64 %105
  store i8 %103, i8* %106, align 1
  br label %107

107:                                              ; preds = %98
  %108 = load i32, i32* %4, align 4
  %109 = add nsw i32 %108, 1
  store i32 %109, i32* %4, align 4
  br label %93

110:                                              ; preds = %93
  %111 = load i32, i32* %5, align 4
  %112 = add nsw i32 %111, 3
  %113 = sext i32 %112 to i64
  %114 = getelementptr inbounds [16 x i8], [16 x i8]* %3, i64 0, i64 %113
  store i8 0, i8* %114, align 1
  %115 = getelementptr inbounds [16 x i8], [16 x i8]* %3, i64 0, i64 0
  %116 = call i32 (i8*, ...) @printf(i8* getelementptr inbounds ([4 x i8], [4 x i8]* @.str.1, i64 0, i64 0), i8* %115)
  br label %8

117:                                              ; preds = %8
  ret void
}

declare dso_local i32 @__isoc99_scanf(i8*, ...) #1

declare dso_local i32 @printf(i8*, ...) #1


!llvm.module.flags = !{!0}
!llvm.ident = !{!1}

!0 = !{i32 1, !"wchar_size", i32 4}
!1 = !{!"clang version 10.0.0-4ubuntu1 "}
